; Function Attrs: nounwind uwtable
define internal fastcc noundef i32 @_modify_clusters(ptr noundef readonly captures(none) %0, ptr readonly captures(none) %.8.val, ptr noundef captures(none) initializes((0, 8)) %1) unnamed_addr #0 {
  %3 = alloca %struct.dbd_list_msg_t, align 8
  call void @llvm.lifetime.start.p0(i64 16, ptr nonnull %3) #10
  %4 = getelementptr inbounds nuw i8, ptr %3, i64 8
  store i64 0, ptr %4, align 8
  %5 = tail call i32 @get_log_level() #10
  %6 = icmp sgt i32 %5, 5
  br i1 %6, label %7, label %11

7:                                                ; preds = %2
  %8 = load ptr, ptr %0, align 8
  %9 = getelementptr inbounds nuw i8, ptr %8, i64 60
  %10 = load i32, ptr %9, align 4
  tail call void (i32, ptr, ...) @log_var(i32 noundef 6, ptr noundef nonnull @.str.103, i32 noundef %10) #10
  br label %11

11:                                               ; preds = %7, %2
  %12 = getelementptr inbounds nuw i8, ptr %0, i64 56
  %13 = load ptr, ptr %12, align 8
  %14 = load ptr, ptr %0, align 8
  %15 = getelementptr inbounds nuw i8, ptr %14, i64 8
  %16 = load i32, ptr %15, align 8
  %17 = load ptr, ptr %.8.val, align 8
  %18 = getelementptr inbounds nuw i8, ptr %.8.val, i64 8
  %19 = load ptr, ptr %18, align 8
  %20 = tail call ptr @acct_storage_g_modify_clusters(ptr noundef %13, i32 noundef %16, ptr noundef %17, ptr noundef %19) #10
  store ptr %20, ptr %3, align 8
  %.not = icmp eq ptr %20, null
  br i1 %.not, label %21, label %41

21:                                               ; preds = %11
  %22 = tail call ptr @__errno_location() #12
  %23 = load i32, ptr %22, align 4
  %24 = load ptr, ptr %0, align 8
  %25 = getelementptr inbounds nuw i8, ptr %24, i64 60
  %26 = load i32, ptr %25, align 4
  switch i32 %23, label %35 [
    i32 1900, label %27
    i32 2002, label %37
    i32 -1, label %31
    i32 7000, label %32
    i32 2067, label %34
  ]

27:                                               ; preds = %21
  %28 = tail call i32 @get_log_level() #10
  %29 = icmp sgt i32 %28, 5
  br i1 %29, label %30, label %_internal_rc_to_str.exit

30:                                               ; preds = %27
  tail call void (i32, ptr, ...) @log_var(i32 noundef 6, ptr noundef nonnull @.str.16, i32 noundef %26, ptr noundef nonnull @.str.15) #10
  br label %_internal_rc_to_str.exit

31:                                               ; preds = %21
  br label %37

32:                                               ; preds = %21
  %33 = tail call ptr @slurm_strerror(i32 noundef 7000) #10
  br label %37

34:                                               ; preds = %21
  br label %37

35:                                               ; preds = %21
  %36 = tail call ptr @slurm_strerror(i32 noundef %23) #10
  %.not.i = icmp eq ptr %36, null
  %spec.store.select1.i = select i1 %.not.i, ptr @.str.24, ptr %36
  br label %37

37:                                               ; preds = %21, %35, %34, %32, %31
  %.1.i = phi ptr [ @.str.22, %31 ], [ %33, %32 ], [ @.str.23, %34 ], [ %spec.store.select1.i, %35 ], [ @.str.21, %21 ]
  %38 = tail call i32 (ptr, ...) @error(ptr noundef nonnull @.str.16, i32 noundef %26, ptr noundef %.1.i) #10
  br label %_internal_rc_to_str.exit

_internal_rc_to_str.exit:                         ; preds = %27, %30, %37
  %.022.i = phi ptr [ %.1.i, %37 ], [ @.str.15, %30 ], [ @.str.15, %27 ]
  %39 = load ptr, ptr %0, align 8
  %40 = tail call ptr @slurm_persist_make_rc_msg(ptr noundef %39, i32 noundef %23, ptr noundef %.022.i, i16 noundef zeroext 1430) #10
  store ptr %40, ptr %1, align 8
  br label %49

41:                                               ; preds = %11
  %42 = tail call ptr @init_buf(i32 noundef 1024) #10
  store ptr %42, ptr %1, align 8
  tail call void @pack16(i16 noundef zeroext 1422, ptr noundef %42) #10
  %43 = load ptr, ptr %0, align 8
  %44 = getelementptr inbounds nuw i8, ptr %43, i64 168
  %45 = load i16, ptr %44, align 8
  %46 = load ptr, ptr %1, align 8
  call void @slurmdbd_pack_list_msg(ptr noundef nonnull %3, i16 noundef zeroext %45, i32 noundef 1422, ptr noundef %46) #10
  %47 = load ptr, ptr %3, align 8
  %.not19 = icmp eq ptr %47, null
  br i1 %.not19, label %49, label %48

48:                                               ; preds = %41
  call void @list_destroy(ptr noundef nonnull %47) #10
  br label %49

49:                                               ; preds = %41, %48, %_internal_rc_to_str.exit
  %.0 = phi i32 [ %23, %_internal_rc_to_str.exit ], [ 0, %48 ], [ 0, %41 ]
  call void @llvm.lifetime.end.p0(i64 16, ptr nonnull %3) #10
  ret i32 %.0
}